(dp1
S'j'
I01
sS'vd'
p2
I01
sS'ad'
p3
I01
sS'ag'
p4
I01
sS'vg'
p5
I01
sS'nrfg'
p6
I01
sS'vn'
p7
I01
sS'an'
p8
I01
sS'vq'
p9
I01
sS'ng'
p10
I01
sS'nz'
p11
I01
sS'vi'
p12
I01
sS'tg'
p13
I01
sS'nr'
p14
I01
sS'ns'
p15
I01
sS'nt'
p16
I01
sS'df'
p17
I01
sS'v'
I01
sS'nrt'
p18
I01
sS'a'
I01
sS'f'
I01
sS'i'
I01
sS'uv'
p19
I01
sS'l'
I01
sS'n'
I01
sS'ul'
p20
I01
sS't'
I01
sS'uj'
p21
I01
s.